; Function Attrs: mustprogress uwtable
define hidden noundef ptr @_ZN6spacer10derivation18create_first_childER5model(ptr noundef nonnull align 8 dereferenceable(64) %0, ptr noundef nonnull align 8 dereferenceable(160) %1) local_unnamed_addr #3 align 2 {
  %3 = getelementptr inbounds nuw i8, ptr %0, i64 16
  %4 = load ptr, ptr %3, align 8, !tbaa !176
  %5 = icmp eq ptr %4, null
  br i1 %5, label %_ZNK6vectorIN6spacer10derivation7premiseELb1EjE5emptyEv.exit.thread, label %_ZNK6vectorIN6spacer10derivation7premiseELb1EjE5emptyEv.exit

_ZNK6vectorIN6spacer10derivation7premiseELb1EjE5emptyEv.exit: ; preds = %2
  %6 = getelementptr inbounds i8, ptr %4, i64 -4
  %7 = load i32, ptr %6, align 4, !tbaa !100
  %8 = icmp eq i32 %7, 0
  br i1 %8, label %_ZNK6vectorIN6spacer10derivation7premiseELb1EjE5emptyEv.exit.thread, label %9

9:                                                ; preds = %_ZNK6vectorIN6spacer10derivation7premiseELb1EjE5emptyEv.exit
  %10 = getelementptr inbounds nuw i8, ptr %0, i64 24
  store i32 0, ptr %10, align 8, !tbaa !179
  %11 = tail call noundef ptr @_ZN6spacer10derivation17create_next_childER5model(ptr noundef nonnull align 8 dereferenceable(64) %0, ptr noundef nonnull align 8 dereferenceable(160) %1)
  br label %_ZNK6vectorIN6spacer10derivation7premiseELb1EjE5emptyEv.exit.thread

_ZNK6vectorIN6spacer10derivation7premiseELb1EjE5emptyEv.exit.thread: ; preds = %2, %_ZNK6vectorIN6spacer10derivation7premiseELb1EjE5emptyEv.exit, %9
  %.0 = phi ptr [ %11, %9 ], [ null, %_ZNK6vectorIN6spacer10derivation7premiseELb1EjE5emptyEv.exit ], [ null, %2 ]
  ret ptr %.0
}